; Function Attrs: mustprogress uwtable
define hidden noundef i32 @_ZN17duckdb_libpgquery19scanner_errpositionEiPv(i32 noundef %0, ptr noundef readonly captures(none) %1) local_unnamed_addr #0 {
  %3 = icmp slt i32 %0, 0
  br i1 %3, label %10, label %4

4:                                                ; preds = %2
  %5 = load ptr, ptr %1, align 8, !tbaa !43
  %6 = load ptr, ptr %5, align 8, !tbaa !44
  %7 = tail call noundef i32 @_ZN17duckdb_libpgquery20pg_mbstrlen_with_lenEPKci(ptr noundef %6, i32 noundef %0)
  %8 = add nsw i32 %7, 1
  %9 = tail call noundef i32 @_ZN17duckdb_libpgquery11errpositionEi(i32 noundef %8)
  br label %10

10:                                               ; preds = %2, %4
  %.0 = phi i32 [ %9, %4 ], [ 0, %2 ]
  ret i32 %.0
}